; Function Attrs: mustprogress nofree norecurse nosync nounwind memory(argmem: readwrite) uwtable
define hidden void @_ZN2cv6dynafu14DualQuaternionC2ERNS0_10QuaternionES3_(ptr noundef nonnull writeonly align 4 captures(none) dereferenceable(32) %0, ptr noundef nonnull readonly align 4 captures(none) dereferenceable(16) %1, ptr noundef nonnull readonly align 4 captures(none) dereferenceable(16) %2) unnamed_addr #7 align 2 {
  br label %4

4:                                                ; preds = %4, %3
  %indvars.iv.i.i.i = phi i64 [ 0, %3 ], [ %indvars.iv.next.i.i.i, %4 ]
  %5 = getelementptr inbounds nuw float, ptr %1, i64 %indvars.iv.i.i.i
  %6 = load float, ptr %5, align 4, !tbaa !3
  %7 = getelementptr inbounds nuw [4 x float], ptr %0, i64 0, i64 %indvars.iv.i.i.i
  store float %6, ptr %7, align 4, !tbaa !3
  %indvars.iv.next.i.i.i = add nuw nsw i64 %indvars.iv.i.i.i, 1
  %exitcond.not.i.i.i = icmp eq i64 %indvars.iv.next.i.i.i, 4
  br i1 %exitcond.not.i.i.i, label %_ZN2cv6dynafu10QuaternionC2ERKS1_.exit, label %4, !llvm.loop !34

_ZN2cv6dynafu10QuaternionC2ERKS1_.exit:           ; preds = %4
  %8 = getelementptr inbounds nuw i8, ptr %0, i64 16
  br label %9

9:                                                ; preds = %9, %_ZN2cv6dynafu10QuaternionC2ERKS1_.exit
  %indvars.iv.i.i.i3 = phi i64 [ 0, %_ZN2cv6dynafu10QuaternionC2ERKS1_.exit ], [ %indvars.iv.next.i.i.i4, %9 ]
  %10 = getelementptr inbounds nuw float, ptr %2, i64 %indvars.iv.i.i.i3
  %11 = load float, ptr %10, align 4, !tbaa !3
  %12 = getelementptr inbounds nuw [4 x float], ptr %8, i64 0, i64 %indvars.iv.i.i.i3
  store float %11, ptr %12, align 4, !tbaa !3
  %indvars.iv.next.i.i.i4 = add nuw nsw i64 %indvars.iv.i.i.i3, 1
  %exitcond.not.i.i.i5 = icmp eq i64 %indvars.iv.next.i.i.i4, 4
  br i1 %exitcond.not.i.i.i5, label %_ZN2cv6dynafu10QuaternionC2ERKS1_.exit6, label %9, !llvm.loop !34

_ZN2cv6dynafu10QuaternionC2ERKS1_.exit6:          ; preds = %9
  ret void
}